target datalayout = "e-m:e-p270:32:32-p271:32:32-p272:64:64-i64:64-i128:128-f80:128-n8:16:32:64-S128"
target triple = "x86_64-pc-linux-gnu"

%struct.Aig_Man_t_ = type { ptr, ptr, ptr, ptr, ptr, ptr, ptr, %struct.Aig_Obj_t_, i32, i32, i32, i32, i32, i32, [7 x i32], i32, ptr, i32, ptr, i32, ptr, i32, i32, i32, ptr, i32, i32, i32, i32, i32, ptr, ptr, i32, ptr, ptr, i32, ptr, ptr, i32, i32, i32, ptr, ptr, ptr, ptr, ptr, ptr, ptr, ptr, ptr, ptr, ptr, ptr, ptr, ptr, i32, ptr, ptr, ptr, ptr, i32, i64, i64, i64, ptr, ptr }
%struct.Aig_Obj_t_ = type { %union.anon, ptr, ptr, i64, i32, i32, %union.anon.0 }
%union.anon = type { ptr }
%union.anon.0 = type { ptr }
%struct.Vec_Ptr_t_ = type { i32, i32, ptr }

; Function Attrs: nounwind uwtable
define internal i32 @Aig_IsComplement(ptr noundef %0) #0 {
  %2 = alloca ptr, align 8
  store ptr %0, ptr %2, align 8
  %3 = load ptr, ptr %2, align 8
  %4 = ptrtoint ptr %3 to i64
  %5 = and i64 %4, 1
  %6 = trunc i64 %5 to i32
  ret i32 %6
}

; Function Attrs: nounwind uwtable
define internal ptr @Aig_NotCond(ptr noundef %0, i32 noundef %1) #0 {
  %3 = alloca ptr, align 8
  %4 = alloca i32, align 4
  store ptr %0, ptr %3, align 8
  store i32 %1, ptr %4, align 4
  %5 = load ptr, ptr %3, align 8
  %6 = ptrtoint ptr %5 to i64
  %7 = load i32, ptr %4, align 4
  %8 = sext i32 %7 to i64
  %9 = xor i64 %6, %8
  %10 = inttoptr i64 %9 to ptr
  ret ptr %10
}

; Function Attrs: nounwind uwtable
define internal i32 @Aig_ObjFaninC0(ptr noundef %0) #0 {
  %2 = alloca ptr, align 8
  store ptr %0, ptr %2, align 8
  %3 = load ptr, ptr %2, align 8
  %4 = getelementptr inbounds %struct.Aig_Obj_t_, ptr %3, i32 0, i32 1
  %5 = load ptr, ptr %4, align 8
  %6 = call i32 @Aig_IsComplement(ptr noundef %5)
  ret i32 %6
}

; Function Attrs: nounwind uwtable
define internal ptr @Aig_Regular(ptr noundef %0) #0 {
  %2 = alloca ptr, align 8
  store ptr %0, ptr %2, align 8
  %3 = load ptr, ptr %2, align 8
  %4 = ptrtoint ptr %3 to i64
  %5 = and i64 %4, -2
  %6 = inttoptr i64 %5 to ptr
  ret ptr %6
}

; Function Attrs: nounwind uwtable
define internal ptr @Aig_ObjChild0Copy(ptr noundef %0) #0 {
  %2 = alloca ptr, align 8
  store ptr %0, ptr %2, align 8
  %3 = load ptr, ptr %2, align 8
  %4 = call ptr @Aig_ObjFanin0(ptr noundef %3)
  %5 = icmp ne ptr %4, null
  br i1 %5, label %6, label %14

6:                                                ; preds = %1
  %7 = load ptr, ptr %2, align 8
  %8 = call ptr @Aig_ObjFanin0(ptr noundef %7)
  %9 = getelementptr inbounds %struct.Aig_Obj_t_, ptr %8, i32 0, i32 6
  %10 = load ptr, ptr %9, align 8
  %11 = load ptr, ptr %2, align 8
  %12 = call i32 @Aig_ObjFaninC0(ptr noundef %11)
  %13 = call ptr @Aig_NotCond(ptr noundef %10, i32 noundef %12)
  br label %15

14:                                               ; preds = %1
  br label %15

15:                                               ; preds = %14, %6
  %16 = phi ptr [ %13, %6 ], [ null, %14 ]
  ret ptr %16
}

; Function Attrs: nounwind uwtable
define internal ptr @Aig_ObjFanin0(ptr noundef %0) #0 {
  %2 = alloca ptr, align 8
  store ptr %0, ptr %2, align 8
  %3 = load ptr, ptr %2, align 8
  %4 = getelementptr inbounds %struct.Aig_Obj_t_, ptr %3, i32 0, i32 1
  %5 = load ptr, ptr %4, align 8
  %6 = call ptr @Aig_Regular(ptr noundef %5)
  ret ptr %6
}

; Function Attrs: nounwind uwtable
define internal i32 @Saig_ManPoNum(ptr noundef %0) #0 {
  %2 = alloca ptr, align 8
  store ptr %0, ptr %2, align 8
  %3 = load ptr, ptr %2, align 8
  %4 = getelementptr inbounds %struct.Aig_Man_t_, ptr %3, i32 0, i32 10
  %5 = load i32, ptr %4, align 8
  ret i32 %5
}

; Function Attrs: nounwind uwtable
define internal i32 @Saig_ManRegNum(ptr noundef %0) #0 {
  %2 = alloca ptr, align 8
  store ptr %0, ptr %2, align 8
  %3 = load ptr, ptr %2, align 8
  %4 = getelementptr inbounds %struct.Aig_Man_t_, ptr %3, i32 0, i32 8
  %5 = load i32, ptr %4, align 8
  ret i32 %5
}

; Function Attrs: nounwind uwtable
define internal ptr @Vec_PtrEntry(ptr noundef %0, i32 noundef %1) #0 {
  %3 = alloca ptr, align 8
  %4 = alloca i32, align 4
  store ptr %0, ptr %3, align 8
  store i32 %1, ptr %4, align 4
  %5 = load ptr, ptr %3, align 8
  %6 = getelementptr inbounds %struct.Vec_Ptr_t_, ptr %5, i32 0, i32 2
  %7 = load ptr, ptr %6, align 8
  %8 = load i32, ptr %4, align 4
  %9 = sext i32 %8 to i64
  %10 = getelementptr inbounds ptr, ptr %7, i64 %9
  %11 = load ptr, ptr %10, align 8
  ret ptr %11
}

; Function Attrs: nounwind uwtable
define internal i32 @Vec_PtrSize(ptr noundef %0) #0 {
  %2 = alloca ptr, align 8
  store ptr %0, ptr %2, align 8
  %3 = load ptr, ptr %2, align 8
  %4 = getelementptr inbounds %struct.Vec_Ptr_t_, ptr %3, i32 0, i32 1
  %5 = load i32, ptr %4, align 4
  ret i32 %5
}

; Function Attrs: nounwind uwtable
define internal ptr @Aig_ManConst1(ptr noundef %0) #0 {
  %2 = alloca ptr, align 8
  store ptr %0, ptr %2, align 8
  %3 = load ptr, ptr %2, align 8
  %4 = getelementptr inbounds %struct.Aig_Man_t_, ptr %3, i32 0, i32 6
  %5 = load ptr, ptr %4, align 8
  ret ptr %5
}

; Function Attrs: nounwind uwtable
define internal i32 @Aig_ManObjNumMax(ptr noundef %0) #0 {
  %2 = alloca ptr, align 8
  store ptr %0, ptr %2, align 8
  %3 = load ptr, ptr %2, align 8
  %4 = getelementptr inbounds %struct.Aig_Man_t_, ptr %3, i32 0, i32 4
  %5 = load ptr, ptr %4, align 8
  %6 = call i32 @Vec_PtrSize(ptr noundef %5)
  ret i32 %6
}

; Function Attrs: nounwind uwtable
define ptr @Saig_ManRetimeDupInitState(ptr noundef %0, ptr noundef %1) #0 {
  %3 = alloca ptr, align 8
  %4 = alloca ptr, align 8
  %5 = alloca ptr, align 8
  %6 = alloca ptr, align 8
  %7 = alloca i32, align 4
  store ptr %0, ptr %3, align 8
  store ptr %1, ptr %4, align 8
  %8 = load ptr, ptr %3, align 8
  %9 = call i32 @Aig_ManObjNumMax(ptr noundef %8)
  %10 = call ptr @Aig_ManStart(i32 noundef %9)
  store ptr %10, ptr %5, align 8
  %11 = load ptr, ptr %3, align 8
  call void @Aig_ManCleanData(ptr noundef %11)
  %12 = load ptr, ptr %5, align 8
  %13 = call ptr @Aig_ManConst1(ptr noundef %12)
  %14 = load ptr, ptr %3, align 8
  %15 = call ptr @Aig_ManConst1(ptr noundef %14)
  %16 = getelementptr inbounds %struct.Aig_Obj_t_, ptr %15, i32 0, i32 6
  store ptr %13, ptr %16, align 8
  store i32 0, ptr %7, align 4
  br label %17

17:                                               ; preds = %33, %2
  %18 = load i32, ptr %7, align 4
  %19 = load ptr, ptr %4, align 8
  %20 = call i32 @Vec_PtrSize(ptr noundef %19)
  %21 = icmp slt i32 %18, %20
  br i1 %21, label %22, label %26

22:                                               ; preds = %17
  %23 = load ptr, ptr %4, align 8
  %24 = load i32, ptr %7, align 4
  %25 = call ptr @Vec_PtrEntry(ptr noundef %23, i32 noundef %24)
  store ptr %25, ptr %6, align 8
  br label %26

26:                                               ; preds = %22, %17
  %27 = phi i1 [ false, %17 ], [ true, %22 ]
  br i1 %27, label %28, label %36

28:                                               ; preds = %26
  %29 = load ptr, ptr %5, align 8
  %30 = call ptr @Aig_ObjCreateCi(ptr noundef %29)
  %31 = load ptr, ptr %6, align 8
  %32 = getelementptr inbounds %struct.Aig_Obj_t_, ptr %31, i32 0, i32 6
  store ptr %30, ptr %32, align 8
  br label %33

33:                                               ; preds = %28
  %34 = load i32, ptr %7, align 4
  %35 = add nsw i32 %34, 1
  store i32 %35, ptr %7, align 4
  br label %17, !llvm.loop !30

36:                                               ; preds = %26
  store i32 0, ptr %7, align 4
  br label %37

37:                                               ; preds = %61, %36
  %38 = load i32, ptr %7, align 4
  %39 = load ptr, ptr %3, align 8
  %40 = call i32 @Saig_ManRegNum(ptr noundef %39)
  %41 = icmp slt i32 %38, %40
  br i1 %41, label %42, label %51

42:                                               ; preds = %37
  %43 = load ptr, ptr %3, align 8
  %44 = getelementptr inbounds %struct.Aig_Man_t_, ptr %43, i32 0, i32 3
  %45 = load ptr, ptr %44, align 8
  %46 = load i32, ptr %7, align 4
  %47 = load ptr, ptr %3, align 8
  %48 = call i32 @Saig_ManPoNum(ptr noundef %47)
  %49 = add nsw i32 %46, %48
  %50 = call ptr @Vec_PtrEntry(ptr noundef %45, i32 noundef %49)
  store ptr %50, ptr %6, align 8
  br label %51

51:                                               ; preds = %42, %37
  %52 = phi i1 [ false, %37 ], [ true, %42 ]
  br i1 %52, label %53, label %64

53:                                               ; preds = %51
  %54 = load ptr, ptr %5, align 8
  %55 = load ptr, ptr %6, align 8
  %56 = call ptr @Aig_ObjFanin0(ptr noundef %55)
  call void @Saig_ManRetimeDup_rec(ptr noundef %54, ptr noundef %56)
  %57 = load ptr, ptr %5, align 8
  %58 = load ptr, ptr %6, align 8
  %59 = call ptr @Aig_ObjChild0Copy(ptr noundef %58)
  %60 = call ptr @Aig_ObjCreateCo(ptr noundef %57, ptr noundef %59)
  br label %61

61:                                               ; preds = %53
  %62 = load i32, ptr %7, align 4
  %63 = add nsw i32 %62, 1
  store i32 %63, ptr %7, align 4
  br label %37, !llvm.loop !31

64:                                               ; preds = %51
  %65 = load ptr, ptr %5, align 8
  ret ptr %65
}