; Function Attrs: nounwind uwtable
define ptr @Saig_ManRetimeDupInitState(ptr noundef %0, ptr noundef readonly captures(none) %1) local_unnamed_addr #0 {
  %3 = getelementptr i8, ptr %0, i64 32
  %.val27 = load ptr, ptr %3, align 8
  %4 = getelementptr i8, ptr %.val27, i64 4
  %.val27.val = load i32, ptr %4, align 4
  %5 = tail call ptr @Aig_ManStart(i32 noundef %.val27.val) #13
  tail call void @Aig_ManCleanData(ptr noundef %0) #13
  %6 = getelementptr i8, ptr %5, i64 48
  %.val29 = load ptr, ptr %6, align 8
  %7 = getelementptr i8, ptr %0, i64 48
  %.val28 = load ptr, ptr %7, align 8
  %8 = getelementptr inbounds nuw i8, ptr %.val28, i64 40
  store ptr %.val29, ptr %8, align 8
  %9 = getelementptr i8, ptr %1, i64 4
  %.val32 = load i32, ptr %9, align 4
  %10 = icmp sgt i32 %.val32, 0
  br i1 %10, label %.lr.ph, label %.critedge.preheader

.lr.ph:                                           ; preds = %2
  %11 = getelementptr i8, ptr %1, i64 8
  br label %16

.critedge.preheader:                              ; preds = %16, %2
  %12 = getelementptr i8, ptr %0, i64 104
  %.val3134 = load i32, ptr %12, align 8
  %13 = icmp sgt i32 %.val3134, 0
  br i1 %13, label %.lr.ph36, label %.critedge2

.lr.ph36:                                         ; preds = %.critedge.preheader
  %14 = getelementptr inbounds nuw i8, ptr %0, i64 24
  %15 = getelementptr i8, ptr %0, i64 112
  br label %23

16:                                               ; preds = %.lr.ph, %16
  %indvars.iv = phi i64 [ 0, %.lr.ph ], [ %indvars.iv.next, %16 ]
  %.val24 = load ptr, ptr %11, align 8
  %17 = getelementptr inbounds nuw ptr, ptr %.val24, i64 %indvars.iv
  %18 = load ptr, ptr %17, align 8
  %19 = tail call ptr @Aig_ObjCreateCi(ptr noundef %5) #13
  %20 = getelementptr inbounds nuw i8, ptr %18, i64 40
  store ptr %19, ptr %20, align 8
  %indvars.iv.next = add nuw nsw i64 %indvars.iv, 1
  %.val = load i32, ptr %9, align 4
  %21 = sext i32 %.val to i64
  %22 = icmp slt i64 %indvars.iv.next, %21
  br i1 %22, label %16, label %.critedge.preheader, !llvm.loop !29

23:                                               ; preds = %.lr.ph36, %Aig_ObjChild0Copy.exit
  %.135 = phi i32 [ 0, %.lr.ph36 ], [ %46, %Aig_ObjChild0Copy.exit ]
  %24 = load ptr, ptr %14, align 8
  %.val30 = load i32, ptr %15, align 8
  %25 = add nsw i32 %.val30, %.135
  %26 = getelementptr i8, ptr %24, i64 8
  %.val23 = load ptr, ptr %26, align 8
  %27 = sext i32 %25 to i64
  %28 = getelementptr inbounds ptr, ptr %.val23, i64 %27
  %29 = load ptr, ptr %28, align 8
  %30 = getelementptr i8, ptr %29, i64 8
  %.val25 = load ptr, ptr %30, align 8
  %31 = ptrtoint ptr %.val25 to i64
  %32 = and i64 %31, -2
  %33 = inttoptr i64 %32 to ptr
  tail call void @Saig_ManRetimeDup_rec(ptr noundef %5, ptr noundef %33)
  %.val26 = load ptr, ptr %30, align 8
  %34 = ptrtoint ptr %.val26 to i64
  %35 = and i64 %34, -2
  %.not.i = icmp eq i64 %35, 0
  br i1 %.not.i, label %Aig_ObjChild0Copy.exit, label %36

36:                                               ; preds = %23
  %37 = inttoptr i64 %35 to ptr
  %38 = getelementptr inbounds nuw i8, ptr %37, i64 40
  %39 = load ptr, ptr %38, align 8
  %40 = and i64 %34, 1
  %41 = ptrtoint ptr %39 to i64
  %42 = xor i64 %40, %41
  %43 = inttoptr i64 %42 to ptr
  br label %Aig_ObjChild0Copy.exit

Aig_ObjChild0Copy.exit:                           ; preds = %23, %36
  %44 = phi ptr [ %43, %36 ], [ null, %23 ]
  %45 = tail call ptr @Aig_ObjCreateCo(ptr noundef %5, ptr noundef %44) #13
  %46 = add nuw nsw i32 %.135, 1
  %.val31 = load i32, ptr %12, align 8
  %47 = icmp slt i32 %46, %.val31
  br i1 %47, label %23, label %.critedge2, !llvm.loop !30

.critedge2:                                       ; preds = %Aig_ObjChild0Copy.exit, %.critedge.preheader
  ret ptr %5
}